target datalayout = "e-m:e-p270:32:32-p271:32:32-p272:64:64-i64:64-i128:128-f80:128-n8:16:32:64-S128"
target triple = "x86_64-pc-linux-gnu"

%struct.ForEachState = type { ptr, i32 }
%struct.List = type { i32, i32, i32, ptr, [0 x %union.ListCell] }
%union.ListCell = type { ptr }
%struct.SortGroupClause = type { i32, i32, i32, i32, i8, i8, i8 }

; Function Attrs: nounwind uwtable
define dso_local zeroext i1 @grouping_is_sortable(ptr noundef %0) #0 {
  %2 = alloca i1, align 1
  %3 = alloca ptr, align 8
  %4 = alloca ptr, align 8
  %5 = alloca %struct.ForEachState, align 8
  %6 = alloca i32, align 4
  %7 = alloca ptr, align 8
  store ptr %0, ptr %3, align 8
  call void @llvm.lifetime.start.p0(i64 8, ptr %4) #7
  call void @llvm.lifetime.start.p0(i64 16, ptr %5) #7
  %8 = getelementptr inbounds nuw %struct.ForEachState, ptr %5, i32 0, i32 0
  %9 = load ptr, ptr %3, align 8
  store ptr %9, ptr %8, align 8
  %10 = getelementptr inbounds nuw %struct.ForEachState, ptr %5, i32 0, i32 1
  store i32 0, ptr %10, align 8
  %11 = getelementptr i8, ptr %5, i64 12
  call void @llvm.memset.p0.i64(ptr align 4 %11, i8 0, i64 4, i1 false)
  br label %12

12:                                               ; preds = %50, %1
  %13 = getelementptr inbounds nuw %struct.ForEachState, ptr %5, i32 0, i32 0
  %14 = load ptr, ptr %13, align 8
  %15 = icmp ne ptr %14, null
  br i1 %15, label %16, label %33

16:                                               ; preds = %12
  %17 = getelementptr inbounds nuw %struct.ForEachState, ptr %5, i32 0, i32 1
  %18 = load i32, ptr %17, align 8
  %19 = getelementptr inbounds nuw %struct.ForEachState, ptr %5, i32 0, i32 0
  %20 = load ptr, ptr %19, align 8
  %21 = getelementptr inbounds nuw %struct.List, ptr %20, i32 0, i32 1
  %22 = load i32, ptr %21, align 4
  %23 = icmp slt i32 %18, %22
  br i1 %23, label %24, label %33

24:                                               ; preds = %16
  %25 = getelementptr inbounds nuw %struct.ForEachState, ptr %5, i32 0, i32 0
  %26 = load ptr, ptr %25, align 8
  %27 = getelementptr inbounds nuw %struct.List, ptr %26, i32 0, i32 3
  %28 = load ptr, ptr %27, align 8
  %29 = getelementptr inbounds nuw %struct.ForEachState, ptr %5, i32 0, i32 1
  %30 = load i32, ptr %29, align 8
  %31 = sext i32 %30 to i64
  %32 = getelementptr inbounds %union.ListCell, ptr %28, i64 %31
  store ptr %32, ptr %4, align 8
  br label %34

33:                                               ; preds = %16, %12
  store ptr null, ptr %4, align 8
  br label %34

34:                                               ; preds = %33, %24
  %35 = phi i32 [ 1, %24 ], [ 0, %33 ]
  %36 = icmp ne i32 %35, 0
  br i1 %36, label %38, label %37

37:                                               ; preds = %34
  store i32 2, ptr %6, align 4
  br label %54

38:                                               ; preds = %34
  call void @llvm.lifetime.start.p0(i64 8, ptr %7) #7
  %39 = load ptr, ptr %4, align 8
  %40 = load ptr, ptr %39, align 8
  store ptr %40, ptr %7, align 8
  %41 = load ptr, ptr %7, align 8
  %42 = getelementptr inbounds nuw %struct.SortGroupClause, ptr %41, i32 0, i32 3
  %43 = load i32, ptr %42, align 4
  %44 = icmp ne i32 %43, 0
  br i1 %44, label %46, label %45

45:                                               ; preds = %38
  store i1 false, ptr %2, align 1
  store i32 1, ptr %6, align 4
  br label %47

46:                                               ; preds = %38
  store i32 0, ptr %6, align 4
  br label %47

47:                                               ; preds = %46, %45
  call void @llvm.lifetime.end.p0(i64 8, ptr %7) #7
  %48 = load i32, ptr %6, align 4
  switch i32 %48, label %54 [
    i32 0, label %49
  ]

49:                                               ; preds = %47
  br label %50

50:                                               ; preds = %49
  %51 = getelementptr inbounds nuw %struct.ForEachState, ptr %5, i32 0, i32 1
  %52 = load i32, ptr %51, align 8
  %53 = add i32 %52, 1
  store i32 %53, ptr %51, align 8
  br label %12, !llvm.loop !22

54:                                               ; preds = %47, %37
  call void @llvm.lifetime.end.p0(i64 16, ptr %5) #7
  %55 = load i32, ptr %6, align 4
  switch i32 %55, label %57 [
    i32 2, label %56
  ]

56:                                               ; preds = %54
  store i1 true, ptr %2, align 1
  store i32 1, ptr %6, align 4
  br label %57

57:                                               ; preds = %56, %54
  call void @llvm.lifetime.end.p0(i64 8, ptr %4) #7
  %58 = load i1, ptr %2, align 1
  ret i1 %58
}