; Function Attrs: nofree norecurse nosync nounwind memory(read, inaccessiblemem: none) uwtable
define dso_local noundef zeroext i1 @grouping_is_sortable(ptr noundef readonly captures(address_is_null) %0) local_unnamed_addr #3 {
  %2 = getelementptr inbounds nuw i8, ptr %0, i64 16
  %.not = icmp eq ptr %0, null
  br i1 %.not, label %.critedge, label %.lr.ph

.lr.ph:                                           ; preds = %1
  %3 = getelementptr inbounds nuw i8, ptr %0, i64 4
  %4 = load i32, ptr %3, align 4
  %5 = icmp sgt i32 %4, 0
  br i1 %5, label %.lr.ph27, label %.critedge

.lr.ph27:                                         ; preds = %.lr.ph
  %6 = load ptr, ptr %2, align 8
  %wide.trip.count = zext nneg i32 %4 to i64
  br label %7

7:                                                ; preds = %7, %.lr.ph27
  %indvars.iv = phi i64 [ 0, %.lr.ph27 ], [ %indvars.iv.next, %7 ]
  %8 = getelementptr inbounds nuw %union.ListCell, ptr %6, i64 %indvars.iv
  %9 = load ptr, ptr %8, align 8
  %10 = getelementptr inbounds nuw i8, ptr %9, i64 12
  %11 = load i32, ptr %10, align 4
  %.not15.not.not = icmp ne i32 %11, 0
  %indvars.iv.next = add nuw nsw i64 %indvars.iv, 1
  %exitcond.not = icmp ne i64 %indvars.iv.next, %wide.trip.count
  %or.cond.not = select i1 %.not15.not.not, i1 %exitcond.not, i1 false
  br i1 %or.cond.not, label %7, label %.critedge

.critedge:                                        ; preds = %7, %.lr.ph, %1
  %.not1418 = phi i1 [ true, %1 ], [ true, %.lr.ph ], [ %.not15.not.not, %7 ]
  ret i1 %.not1418
}